; Function Attrs: mustprogress nounwind uwtable
define void @_ZN2cv9SparseMatD2Ev(ptr noundef nonnull align 8 captures(none) dereferenceable(16) %0) unnamed_addr #4 align 2 personality ptr @__gxx_personality_v0 {
  %2 = getelementptr inbounds nuw i8, ptr %0, i64 8
  %3 = load ptr, ptr %2, align 8, !tbaa !36
  %.not.i = icmp eq ptr %3, null
  br i1 %.not.i, label %_ZN2cv9SparseMat7releaseEv.exit, label %4

4:                                                ; preds = %1
  %5 = atomicrmw add ptr %3, i32 -1 acq_rel, align 8
  %6 = icmp eq i32 %5, 1
  br i1 %6, label %7, label %_ZN2cv9SparseMat7releaseEv.exit

7:                                                ; preds = %4
  %8 = load ptr, ptr %2, align 8, !tbaa !36
  %9 = icmp eq ptr %8, null
  br i1 %9, label %_ZN2cv9SparseMat7releaseEv.exit, label %10

10:                                               ; preds = %7
  %11 = getelementptr inbounds nuw i8, ptr %8, i64 64
  %12 = load ptr, ptr %11, align 8, !tbaa !26
  %.not.i.i.i.i.i = icmp eq ptr %12, null
  br i1 %.not.i.i.i.i.i, label %_ZNSt6vectorImSaImEED2Ev.exit.i.i, label %13

13:                                               ; preds = %10
  tail call void @_ZdlPv(ptr noundef nonnull %12) #24
  br label %_ZNSt6vectorImSaImEED2Ev.exit.i.i

_ZNSt6vectorImSaImEED2Ev.exit.i.i:                ; preds = %13, %10
  %14 = getelementptr inbounds nuw i8, ptr %8, i64 40
  %15 = load ptr, ptr %14, align 8, !tbaa !29
  %.not.i.i.i1.i.i = icmp eq ptr %15, null
  br i1 %.not.i.i.i1.i.i, label %_ZN2cv9SparseMat3HdrD2Ev.exit.i, label %16

16:                                               ; preds = %_ZNSt6vectorImSaImEED2Ev.exit.i.i
  tail call void @_ZdlPv(ptr noundef nonnull %15) #24
  br label %_ZN2cv9SparseMat3HdrD2Ev.exit.i

_ZN2cv9SparseMat3HdrD2Ev.exit.i:                  ; preds = %16, %_ZNSt6vectorImSaImEED2Ev.exit.i.i
  tail call void @_ZdlPv(ptr noundef nonnull %8) #24
  br label %_ZN2cv9SparseMat7releaseEv.exit

_ZN2cv9SparseMat7releaseEv.exit:                  ; preds = %1, %4, %7, %_ZN2cv9SparseMat3HdrD2Ev.exit.i
  store ptr null, ptr %2, align 8, !tbaa !36
  ret void
}